target datalayout = "e-m:e-p270:32:32-p271:32:32-p272:64:64-i64:64-i128:128-f80:128-n8:16:32:64-S128"
target triple = "x86_64-pc-linux-gnu"

%struct.omp_module_nthreads_t = type { i32, i32, %"struct.gmx::EnumerationArray" }
%"struct.gmx::EnumerationArray" = type { [10 x i32] }
%"struct.gmx::EnumerationArray.10" = type { [10 x ptr] }
%"class.std::__cxx11::basic_string" = type { %"struct.std::__cxx11::basic_string<char>::_Alloc_hider", i64, %union.anon }
%"struct.std::__cxx11::basic_string<char>::_Alloc_hider" = type { ptr }
%union.anon = type { i64, [8 x i8] }
%"class.gmx::LogWriteHelper" = type { ptr }
%"class.gmx::LogEntryWriter" = type { %"struct.gmx::LogEntry" }
%"struct.gmx::LogEntry" = type <{ %"class.std::__cxx11::basic_string", i8, [7 x i8] }>
%"class.gmx::MDLogger" = type { %"class.gmx::LogLevelHelper", %"class.gmx::LogLevelHelper", %"class.gmx::LogLevelHelper", %"class.gmx::LogLevelHelper", %"class.gmx::LogLevelHelper" }
%"class.gmx::LogLevelHelper" = type { ptr }
%class.anon.11 = type { i8 }

@.str = private unnamed_addr constant [16 x i8] c"OMP_NUM_THREADS\00", align 1
@.str.1 = private unnamed_addr constant [3 x i8] c"%d\00", align 1
@.str.2 = private unnamed_addr constant [132 x i8] c"generated/home/dtcxzyw/WorkSpace/Projects/compilers/llvm-opt-benchmark/bench/gromacs/gromacs/src/gromacs/mdlib/gmx_omp_nthreads.cpp\00", align 1
@_ZL5modth = internal global %struct.omp_module_nthreads_t zeroinitializer, align 4
@.str.14 = private unnamed_addr constant [87 x i8] c"%s=%d is set, the default number of threads also needs to be set with OMP_NUM_THREADS!\00", align 1
@.str.15 = private unnamed_addr constant [55 x i8] c"%s=%d set, overriding the default number of %s threads\00", align 1
@.str.42 = private unnamed_addr constant [68 x i8] c"mod >= ModuleMultiThread::Default && mod < ModuleMultiThread::Count\00", align 1
@.str.43 = private unnamed_addr constant [48 x i8] c"Trying to set nthreads on invalid OpenMP module\00", align 1
@"__PRETTY_FUNCTION__._ZZ20gmx_omp_nthreads_set17ModuleMultiThreadiENK3$_0clEv" = private unnamed_addr constant [89 x i8] c"auto gmx_omp_nthreads_set(ModuleMultiThread, int)::(anonymous class)::operator()() const\00", align 1

; Function Attrs: mustprogress nounwind uwtable
define linkonce_odr noundef nonnull align 4 dereferenceable(4) ptr @_ZN3gmx16EnumerationArrayI17ModuleMultiThreadiLS1_10EEixES1_(ptr noundef nonnull align 4 dereferenceable(40) %0, i32 noundef %1) #3 comdat align 2 {
  %3 = alloca ptr, align 8
  %4 = alloca i32, align 4
  store ptr %0, ptr %3, align 8
  store i32 %1, ptr %4, align 4
  %5 = load ptr, ptr %3, align 8
  %6 = getelementptr inbounds %"struct.gmx::EnumerationArray", ptr %5, i32 0, i32 0
  %7 = load i32, ptr %4, align 4
  %8 = sext i32 %7 to i64
  %9 = getelementptr inbounds [10 x i32], ptr %6, i64 0, i64 %8
  ret ptr %9
}

; Function Attrs: mustprogress uwtable
define internal void @"_ZZ20gmx_omp_nthreads_set17ModuleMultiThreadiENK3$_0clEv"(ptr noundef nonnull align 1 dereferenceable(1) %0) #0 align 2 {
  %2 = alloca ptr, align 8
  store ptr %0, ptr %2, align 8
  call void @_ZN3gmx8internal13assertHandlerEPKcS2_S2_S2_i(ptr noundef @.str.42, ptr noundef @.str.43, ptr noundef @"__PRETTY_FUNCTION__._ZZ20gmx_omp_nthreads_set17ModuleMultiThreadiENK3$_0clEv", ptr noundef @.str.2, i32 noundef 511) #10
  unreachable
}

; Function Attrs: mustprogress nounwind uwtable
define linkonce_odr void @_ZN3gmx8LogEntryD2Ev(ptr noundef nonnull align 8 dereferenceable(33) %0) unnamed_addr #3 comdat align 2 {
  %2 = alloca ptr, align 8
  store ptr %0, ptr %2, align 8
  %3 = load ptr, ptr %2, align 8
  %4 = getelementptr inbounds %"struct.gmx::LogEntry", ptr %3, i32 0, i32 0
  call void @_ZNSt7__cxx1112basic_stringIcSt11char_traitsIcESaIcEED1Ev(ptr noundef nonnull align 8 dereferenceable(32) %4) #9
  ret void
}

; Function Attrs: mustprogress nounwind uwtable
define linkonce_odr void @_ZN3gmx8LogEntryC2Ev(ptr noundef nonnull align 8 dereferenceable(33) %0) unnamed_addr #3 comdat align 2 {
  %2 = alloca ptr, align 8
  store ptr %0, ptr %2, align 8
  %3 = load ptr, ptr %2, align 8
  %4 = getelementptr inbounds %"struct.gmx::LogEntry", ptr %3, i32 0, i32 0
  call void @_ZNSt7__cxx1112basic_stringIcSt11char_traitsIcESaIcEEC1Ev(ptr noundef nonnull align 8 dereferenceable(32) %4) #9
  %5 = getelementptr inbounds %"struct.gmx::LogEntry", ptr %3, i32 0, i32 1
  store i8 0, ptr %5, align 8
  ret void
}

; Function Attrs: mustprogress nounwind uwtable
define linkonce_odr void @_ZN3gmx14LogWriteHelperC2EPNS_10ILogTargetE(ptr noundef nonnull align 8 dereferenceable(8) %0, ptr noundef %1) unnamed_addr #3 comdat align 2 {
  %3 = alloca ptr, align 8
  %4 = alloca ptr, align 8
  store ptr %0, ptr %3, align 8
  store ptr %1, ptr %4, align 8
  %5 = load ptr, ptr %3, align 8
  %6 = getelementptr inbounds %"class.gmx::LogWriteHelper", ptr %5, i32 0, i32 0
  %7 = load ptr, ptr %4, align 8
  store ptr %7, ptr %6, align 8
  ret void
}

; Function Attrs: mustprogress nounwind uwtable
define linkonce_odr noundef nonnull align 8 dereferenceable(8) ptr @_ZNK3gmx16EnumerationArrayI17ModuleMultiThreadPKcLS1_10EEixES1_(ptr noundef nonnull align 8 dereferenceable(80) %0, i32 noundef %1) #3 comdat align 2 {
  %3 = alloca ptr, align 8
  %4 = alloca i32, align 4
  store ptr %0, ptr %3, align 8
  store i32 %1, ptr %4, align 4
  %5 = load ptr, ptr %3, align 8
  %6 = getelementptr inbounds %"struct.gmx::EnumerationArray.10", ptr %5, i32 0, i32 0
  %7 = load i32, ptr %4, align 4
  %8 = sext i32 %7 to i64
  %9 = getelementptr inbounds [10 x ptr], ptr %6, i64 0, i64 %8
  ret ptr %9
}

; Function Attrs: mustprogress uwtable
define void @_Z20gmx_omp_nthreads_set17ModuleMultiThreadi(i32 noundef %0, i32 noundef %1) #0 {
  %3 = alloca i32, align 4
  %4 = alloca i32, align 4
  %5 = alloca %class.anon.11, align 1
  store i32 %0, ptr %3, align 4
  store i32 %1, ptr %4, align 4
  %6 = load i32, ptr %3, align 4
  %7 = icmp sge i32 %6, 0
  br i1 %7, label %8, label %12

8:                                                ; preds = %2
  %9 = load i32, ptr %3, align 4
  %10 = icmp slt i32 %9, 10
  br i1 %10, label %11, label %12

11:                                               ; preds = %8
  br label %13

12:                                               ; preds = %8, %2
  call void @"_ZZ20gmx_omp_nthreads_set17ModuleMultiThreadiENK3$_0clEv"(ptr noundef nonnull align 1 dereferenceable(1) %5)
  br label %13

13:                                               ; preds = %12, %11
  %14 = load i32, ptr %4, align 4
  %15 = load i32, ptr %3, align 4
  %16 = call noundef nonnull align 4 dereferenceable(4) ptr @_ZN3gmx16EnumerationArrayI17ModuleMultiThreadiLS1_10EEixES1_(ptr noundef nonnull align 4 dereferenceable(40) getelementptr inbounds (%struct.omp_module_nthreads_t, ptr @_ZL5modth, i32 0, i32 2), i32 noundef %15)
  store i32 %14, ptr %16, align 4
  ret void
}

; Function Attrs: mustprogress nounwind uwtable
define linkonce_odr void @_ZN3gmx14LogEntryWriterD2Ev(ptr noundef nonnull align 8 dereferenceable(40) %0) unnamed_addr #3 comdat align 2 {
  %2 = alloca ptr, align 8
  store ptr %0, ptr %2, align 8
  %3 = load ptr, ptr %2, align 8
  %4 = getelementptr inbounds %"class.gmx::LogEntryWriter", ptr %3, i32 0, i32 0
  call void @_ZN3gmx8LogEntryD2Ev(ptr noundef nonnull align 8 dereferenceable(33) %4) #9
  ret void
}

; Function Attrs: mustprogress uwtable
define linkonce_odr noundef nonnull align 8 dereferenceable(8) ptr @_ZN3gmx14LogWriteHelperaSERKNS_14LogEntryWriterE(ptr noundef nonnull align 8 dereferenceable(8) %0, ptr noundef nonnull align 8 dereferenceable(40) %1) #0 comdat align 2 {
  %3 = alloca ptr, align 8
  %4 = alloca ptr, align 8
  store ptr %0, ptr %3, align 8
  store ptr %1, ptr %4, align 8
  %5 = load ptr, ptr %3, align 8
  %6 = getelementptr inbounds %"class.gmx::LogWriteHelper", ptr %5, i32 0, i32 0
  %7 = load ptr, ptr %6, align 8
  %8 = load ptr, ptr %4, align 8
  %9 = getelementptr inbounds %"class.gmx::LogEntryWriter", ptr %8, i32 0, i32 0
  %10 = load ptr, ptr %7, align 8
  %11 = getelementptr inbounds ptr, ptr %10, i64 2
  %12 = load ptr, ptr %11, align 8
  call void %12(ptr noundef nonnull align 8 dereferenceable(8) %7, ptr noundef nonnull align 8 dereferenceable(33) %9)
  ret ptr %5
}

; Function Attrs: mustprogress nounwind uwtable
define internal noundef ptr @_ZL17enumValueToString17ModuleMultiThread(i32 noundef %0) #3 {
  %2 = alloca i32, align 4
  %3 = alloca %"struct.gmx::EnumerationArray.10", align 8
  store i32 %0, ptr %2, align 4
  call void @llvm.memcpy.p0.p0.i64(ptr align 8 %3, ptr align 8 @__const._ZL17enumValueToString17ModuleMultiThread.moduleMultiThreadNames, i64 80, i1 false)
  %4 = load i32, ptr %2, align 4
  %5 = call noundef nonnull align 8 dereferenceable(8) ptr @_ZNK3gmx16EnumerationArrayI17ModuleMultiThreadPKcLS1_10EEixES1_(ptr noundef nonnull align 8 dereferenceable(80) %3, i32 noundef %4)
  %6 = load ptr, ptr %5, align 8
  ret ptr %6
}

; Function Attrs: mustprogress nounwind uwtable
define linkonce_odr noundef nonnull align 8 dereferenceable(40) ptr @_ZN3gmx14LogEntryWriter11asParagraphEv(ptr noundef nonnull align 8 dereferenceable(40) %0) #3 comdat align 2 {
  %2 = alloca ptr, align 8
  store ptr %0, ptr %2, align 8
  %3 = load ptr, ptr %2, align 8
  %4 = getelementptr inbounds %"class.gmx::LogEntryWriter", ptr %3, i32 0, i32 0
  %5 = getelementptr inbounds %"struct.gmx::LogEntry", ptr %4, i32 0, i32 1
  store i8 1, ptr %5, align 8
  ret ptr %3
}

; Function Attrs: mustprogress uwtable
define linkonce_odr void @_ZN3gmx14LogEntryWriterC2Ev(ptr noundef nonnull align 8 dereferenceable(40) %0) unnamed_addr #0 comdat align 2 {
  %2 = alloca ptr, align 8
  store ptr %0, ptr %2, align 8
  %3 = load ptr, ptr %2, align 8
  %4 = getelementptr inbounds %"class.gmx::LogEntryWriter", ptr %3, i32 0, i32 0
  call void @_ZN3gmx8LogEntryC2Ev(ptr noundef nonnull align 8 dereferenceable(33) %4)
  ret void
}

; Function Attrs: mustprogress nounwind uwtable
define linkonce_odr noundef zeroext i1 @_ZNK3gmx14LogWriteHelpercvbEv(ptr noundef nonnull align 8 dereferenceable(8) %0) #3 comdat align 2 {
  %2 = alloca ptr, align 8
  store ptr %0, ptr %2, align 8
  %3 = load ptr, ptr %2, align 8
  %4 = getelementptr inbounds %"class.gmx::LogWriteHelper", ptr %3, i32 0, i32 0
  %5 = load ptr, ptr %4, align 8
  %6 = icmp eq ptr %5, null
  ret i1 %6
}

; Function Attrs: mustprogress uwtable
define linkonce_odr ptr @_ZNK3gmx14LogLevelHelpercvNS_14LogWriteHelperEEv(ptr noundef nonnull align 8 dereferenceable(8) %0) #0 comdat align 2 {
  %2 = alloca %"class.gmx::LogWriteHelper", align 8
  %3 = alloca ptr, align 8
  store ptr %0, ptr %3, align 8
  %4 = load ptr, ptr %3, align 8
  %5 = getelementptr inbounds %"class.gmx::LogLevelHelper", ptr %4, i32 0, i32 0
  %6 = load ptr, ptr %5, align 8
  call void @_ZN3gmx14LogWriteHelperC2EPNS_10ILogTargetE(ptr noundef nonnull align 8 dereferenceable(8) %2, ptr noundef %6)
  %7 = getelementptr inbounds %"class.gmx::LogWriteHelper", ptr %2, i32 0, i32 0
  %8 = load ptr, ptr %7, align 8
  ret ptr %8
}

; Function Attrs: mustprogress uwtable
define internal noundef ptr @_ZL28enumValueToEnvVariableString17ModuleMultiThread(i32 noundef %0) #0 {
  %2 = alloca i32, align 4
  %3 = alloca %"struct.gmx::EnumerationArray.10", align 8
  store i32 %0, ptr %2, align 4
  call void @llvm.memcpy.p0.p0.i64(ptr align 8 %3, ptr align 8 @__const._ZL28enumValueToEnvVariableString17ModuleMultiThread.moduleMultiThreadEnvVariableNames, i64 80, i1 false)
  %4 = load i32, ptr %2, align 4
  %5 = call noundef nonnull align 8 dereferenceable(8) ptr @_ZNK3gmx16EnumerationArrayI17ModuleMultiThreadPKcLS1_10EEixES1_(ptr noundef nonnull align 8 dereferenceable(80) %3, i32 noundef %4)
  %6 = load ptr, ptr %5, align 8
  ret ptr %6
}

; Function Attrs: mustprogress uwtable
define internal void @_ZL20pick_module_nthreadsRKN3gmx8MDLoggerE17ModuleMultiThreadb(ptr noundef nonnull align 8 dereferenceable(40) %0, i32 noundef %1, i1 noundef zeroext %2) #0 personality ptr @__gxx_personality_v0 {
  %4 = alloca ptr, align 8
  %5 = alloca i32, align 4
  %6 = alloca i8, align 1
  %7 = alloca ptr, align 8
  %8 = alloca i32, align 4
  %9 = alloca i8, align 1
  %10 = alloca %"class.gmx::LogWriteHelper", align 8
  %11 = alloca %"class.gmx::LogEntryWriter", align 8
  %12 = alloca ptr, align 8
  %13 = alloca i32, align 4
  store ptr %0, ptr %4, align 8
  store i32 %1, ptr %5, align 4
  %14 = zext i1 %2 to i8
  store i8 %14, ptr %6, align 1
  store i8 1, ptr %9, align 1
  %15 = load i32, ptr %5, align 4
  %16 = icmp eq i32 %15, 0
  br i1 %16, label %17, label %18

17:                                               ; preds = %3
  br label %88

18:                                               ; preds = %3
  %19 = load i32, ptr %5, align 4
  %20 = call noundef ptr @_ZL28enumValueToEnvVariableString17ModuleMultiThread(i32 noundef %19)
  %21 = call ptr @getenv(ptr noundef %20) #9
  store ptr %21, ptr %7, align 8
  %22 = icmp ne ptr %21, null
  br i1 %22, label %23, label %73

23:                                               ; preds = %18
  %24 = load ptr, ptr %7, align 8
  %25 = call i32 (ptr, ptr, ...) @__isoc99_sscanf(ptr noundef %24, ptr noundef @.str.1, ptr noundef %8) #9
  %26 = call ptr @getenv(ptr noundef @.str) #9
  %27 = icmp eq ptr %26, null
  br i1 %27, label %28, label %32

28:                                               ; preds = %23
  %29 = load i32, ptr %5, align 4
  %30 = call noundef ptr @_ZL28enumValueToEnvVariableString17ModuleMultiThread(i32 noundef %29)
  %31 = load i32, ptr %8, align 4
  call void (ptr, ...) @_Z11gmx_warningPKcz(ptr noundef @.str.14, ptr noundef %30, i32 noundef %31)
  br label %32

32:                                               ; preds = %28, %23
  %33 = load i8, ptr %6, align 1
  %34 = trunc i8 %33 to i1
  br i1 %34, label %35, label %42

35:                                               ; preds = %32
  %36 = load i32, ptr %5, align 4
  %37 = icmp eq i32 %36, 5
  br i1 %37, label %38, label %42

38:                                               ; preds = %35
  %39 = load i32, ptr %8, align 4
  %40 = load i32, ptr getelementptr inbounds (%struct.omp_module_nthreads_t, ptr @_ZL5modth, i32 0, i32 1), align 4
  %41 = icmp ne i32 %39, %40
  br i1 %41, label %46, label %42

42:                                               ; preds = %38, %35, %32
  %43 = load i32, ptr %8, align 4
  %44 = load i32, ptr @_ZL5modth, align 4
  %45 = icmp ne i32 %43, %44
  br i1 %45, label %46, label %72

46:                                               ; preds = %42, %38
  %47 = load ptr, ptr %4, align 8
  %48 = getelementptr inbounds %"class.gmx::MDLogger", ptr %47, i32 0, i32 0
  %49 = call ptr @_ZNK3gmx14LogLevelHelpercvNS_14LogWriteHelperEEv(ptr noundef nonnull align 8 dereferenceable(8) %48)
  %50 = getelementptr inbounds %"class.gmx::LogWriteHelper", ptr %10, i32 0, i32 0
  store ptr %49, ptr %50, align 8
  %51 = call noundef zeroext i1 @_ZNK3gmx14LogWriteHelpercvbEv(ptr noundef nonnull align 8 dereferenceable(8) %10)
  br i1 %51, label %52, label %53

52:                                               ; preds = %46
  br label %71

53:                                               ; preds = %46
  call void @llvm.memset.p0.i64(ptr align 8 %11, i8 0, i64 40, i1 false)
  call void @_ZN3gmx14LogEntryWriterC2Ev(ptr noundef nonnull align 8 dereferenceable(40) %11)
  %54 = invoke noundef nonnull align 8 dereferenceable(40) ptr @_ZN3gmx14LogEntryWriter11asParagraphEv(ptr noundef nonnull align 8 dereferenceable(40) %11)
          to label %55 unwind label %67

55:                                               ; preds = %53
  %56 = load i32, ptr %5, align 4
  %57 = invoke noundef ptr @_ZL28enumValueToEnvVariableString17ModuleMultiThread(i32 noundef %56)
          to label %58 unwind label %67

58:                                               ; preds = %55
  %59 = load i32, ptr %8, align 4
  %60 = load i32, ptr %5, align 4
  %61 = invoke noundef ptr @_ZL17enumValueToString17ModuleMultiThread(i32 noundef %60)
          to label %62 unwind label %67

62:                                               ; preds = %58
  %63 = invoke noundef nonnull align 8 dereferenceable(40) ptr (ptr, ptr, ...) @_ZN3gmx14LogEntryWriter19appendTextFormattedEPKcz(ptr noundef nonnull align 8 dereferenceable(40) %54, ptr noundef @.str.15, ptr noundef %57, i32 noundef %59, ptr noundef %61)
          to label %64 unwind label %67

64:                                               ; preds = %62
  %65 = invoke noundef nonnull align 8 dereferenceable(8) ptr @_ZN3gmx14LogWriteHelperaSERKNS_14LogEntryWriterE(ptr noundef nonnull align 8 dereferenceable(8) %10, ptr noundef nonnull align 8 dereferenceable(40) %63)
          to label %66 unwind label %67

66:                                               ; preds = %64
  call void @_ZN3gmx14LogEntryWriterD2Ev(ptr noundef nonnull align 8 dereferenceable(40) %11) #9
  br label %71

67:                                               ; preds = %64, %62, %58, %55, %53
  %68 = landingpad { ptr, i32 }
          cleanup
  %69 = extractvalue { ptr, i32 } %68, 0
  store ptr %69, ptr %12, align 8
  %70 = extractvalue { ptr, i32 } %68, 1
  store i32 %70, ptr %13, align 4
  call void @_ZN3gmx14LogEntryWriterD2Ev(ptr noundef nonnull align 8 dereferenceable(40) %11) #9
  br label %89

71:                                               ; preds = %66, %52
  br label %72

72:                                               ; preds = %71, %42
  br label %85

73:                                               ; preds = %18
  %74 = load i8, ptr %6, align 1
  %75 = trunc i8 %74 to i1
  br i1 %75, label %76, label %81

76:                                               ; preds = %73
  %77 = load i32, ptr %5, align 4
  %78 = icmp eq i32 %77, 5
  br i1 %78, label %79, label %81

79:                                               ; preds = %76
  %80 = load i32, ptr getelementptr inbounds (%struct.omp_module_nthreads_t, ptr @_ZL5modth, i32 0, i32 1), align 4
  br label %83

81:                                               ; preds = %76, %73
  %82 = load i32, ptr @_ZL5modth, align 4
  br label %83

83:                                               ; preds = %81, %79
  %84 = phi i32 [ %80, %79 ], [ %82, %81 ]
  store i32 %84, ptr %8, align 4
  br label %85

85:                                               ; preds = %83, %72
  %86 = load i32, ptr %5, align 4
  %87 = load i32, ptr %8, align 4
  call void @_Z20gmx_omp_nthreads_set17ModuleMultiThreadi(i32 noundef %86, i32 noundef %87)
  br label %88

88:                                               ; preds = %85, %17
  ret void

89:                                               ; preds = %67
  %90 = load ptr, ptr %12, align 8
  %91 = load i32, ptr %13, align 4
  %92 = insertvalue { ptr, i32 } poison, ptr %90, 0
  %93 = insertvalue { ptr, i32 } %92, i32 %91, 1
  resume { ptr, i32 } %93
}