; Function Attrs: mustprogress uwtable
define internal fastcc void @_ZL20pick_module_nthreadsRKN3gmx8MDLoggerE17ModuleMultiThreadb(ptr nocapture noundef nonnull readonly align 8 dereferenceable(40) %0, i32 noundef %1, i1 noundef zeroext %2) unnamed_addr #0 personality ptr @__gxx_personality_v0 {
  %4 = alloca i32, align 4
  %5 = alloca %"class.gmx::LogEntryWriter", align 8
  %6 = sext i32 %1 to i64
  %7 = getelementptr inbounds [10 x ptr], ptr @__const._ZL28enumValueToEnvVariableString17ModuleMultiThread.moduleMultiThreadEnvVariableNames, i64 0, i64 %6
  %8 = load ptr, ptr %7, align 8
  %9 = tail call ptr @getenv(ptr noundef %8) #12
  %.not = icmp eq ptr %9, null
  br i1 %.not, label %35, label %10

10:                                               ; preds = %3
  %11 = call i32 (ptr, ptr, ...) @__isoc99_sscanf(ptr noundef nonnull %9, ptr noundef nonnull @.str.1, ptr noundef nonnull %4) #12
  %12 = call ptr @getenv(ptr noundef nonnull @.str) #12
  %13 = icmp eq ptr %12, null
  br i1 %13, label %14, label %16

14:                                               ; preds = %10
  %15 = load i32, ptr %4, align 4
  call void (ptr, ...) @_Z11gmx_warningPKcz(ptr noundef nonnull @.str.14, ptr noundef %8, i32 noundef %15)
  br label %16

16:                                               ; preds = %14, %10
  %17 = icmp eq i32 %1, 5
  %or.cond = and i1 %17, %2
  %.pre = load i32, ptr %4, align 4
  %or.cond.not = xor i1 %or.cond, true
  %18 = load i32, ptr getelementptr inbounds (%struct.omp_module_nthreads_t, ptr @_ZL5modth, i64 0, i32 1), align 4
  %.not17 = icmp eq i32 %.pre, %18
  %or.cond20 = select i1 %or.cond.not, i1 true, i1 %.not17
  %19 = load i32, ptr @_ZL5modth, align 4
  %.not18 = icmp eq i32 %.pre, %19
  %or.cond21 = select i1 %or.cond20, i1 %.not18, i1 false
  br i1 %or.cond21, label %40, label %20

20:                                               ; preds = %16
  %21 = load ptr, ptr %0, align 8
  %22 = icmp eq ptr %21, null
  br i1 %22, label %40, label %23

23:                                               ; preds = %20
  call void @llvm.memset.p0.i64(ptr noundef nonnull align 8 dereferenceable(40) %5, i8 0, i64 40, i1 false)
  call void @_ZNSt7__cxx1112basic_stringIcSt11char_traitsIcESaIcEEC1Ev(ptr noundef nonnull align 8 dereferenceable(32) %5) #12
  %24 = getelementptr inbounds i8, ptr %5, i64 32
  store i8 1, ptr %24, align 8
  %25 = load i32, ptr %4, align 4
  %26 = getelementptr inbounds [10 x ptr], ptr @__const._ZL17enumValueToString17ModuleMultiThread.moduleMultiThreadNames, i64 0, i64 %6
  %27 = load ptr, ptr %26, align 8
  %28 = invoke noundef nonnull align 8 dereferenceable(40) ptr (ptr, ptr, ...) @_ZN3gmx14LogEntryWriter19appendTextFormattedEPKcz(ptr noundef nonnull align 8 dereferenceable(40) %5, ptr noundef nonnull @.str.15, ptr noundef %8, i32 noundef %25, ptr noundef %27)
          to label %29 unwind label %33

29:                                               ; preds = %23
  %30 = load ptr, ptr %21, align 8
  %31 = getelementptr inbounds i8, ptr %30, i64 16
  %32 = load ptr, ptr %31, align 8
  invoke void %32(ptr noundef nonnull align 8 dereferenceable(8) %21, ptr noundef nonnull align 8 dereferenceable(33) %28)
          to label %_ZN3gmx14LogWriteHelperaSERKNS_14LogEntryWriterE.exit unwind label %33

_ZN3gmx14LogWriteHelperaSERKNS_14LogEntryWriterE.exit: ; preds = %29
  call void @_ZNSt7__cxx1112basic_stringIcSt11char_traitsIcESaIcEED1Ev(ptr noundef nonnull align 8 dereferenceable(32) %5) #12
  br label %40

33:                                               ; preds = %29, %23
  %34 = landingpad { ptr, i32 }
          cleanup
  call void @_ZNSt7__cxx1112basic_stringIcSt11char_traitsIcESaIcEED1Ev(ptr noundef nonnull align 8 dereferenceable(32) %5) #12
  resume { ptr, i32 } %34

35:                                               ; preds = %3
  %36 = icmp eq i32 %1, 5
  %or.cond3 = and i1 %36, %2
  %37 = load i32, ptr getelementptr inbounds (%struct.omp_module_nthreads_t, ptr @_ZL5modth, i64 0, i32 1), align 4
  %38 = load i32, ptr @_ZL5modth, align 4
  %39 = select i1 %or.cond3, i32 %37, i32 %38
  store i32 %39, ptr %4, align 4
  br label %40

40:                                               ; preds = %16, %20, %_ZN3gmx14LogWriteHelperaSERKNS_14LogEntryWriterE.exit, %35
  %or.cond.i = icmp ult i32 %1, 10
  br i1 %or.cond.i, label %_Z20gmx_omp_nthreads_set17ModuleMultiThreadi.exit, label %41

41:                                               ; preds = %40
  call void @_ZN3gmx8internal13assertHandlerEPKcS2_S2_S2_i(ptr noundef nonnull @.str.42, ptr noundef nonnull @.str.43, ptr noundef nonnull @"__PRETTY_FUNCTION__._ZZ20gmx_omp_nthreads_set17ModuleMultiThreadiENK3$_0clEv", ptr noundef nonnull @.str.2, i32 noundef 511) #13
  unreachable

_Z20gmx_omp_nthreads_set17ModuleMultiThreadi.exit: ; preds = %40
  %42 = load i32, ptr %4, align 4
  %43 = zext nneg i32 %1 to i64
  %44 = getelementptr inbounds [10 x i32], ptr getelementptr inbounds (%struct.omp_module_nthreads_t, ptr @_ZL5modth, i64 0, i32 2), i64 0, i64 %43
  store i32 %42, ptr %44, align 4
  ret void
}